; Function Attrs: nounwind uwtable
define internal void @init_destination(ptr noundef %0) #0 {
  %2 = getelementptr inbounds nuw i8, ptr %0, i64 40
  %3 = load ptr, ptr %2, align 8, !tbaa !3
  %4 = getelementptr inbounds nuw i8, ptr %0, i64 8
  %5 = load ptr, ptr %4, align 8, !tbaa !24
  %6 = load ptr, ptr %5, align 8, !tbaa !25
  %7 = tail call ptr %6(ptr noundef %0, i32 noundef 1, i64 noundef 4096) #8
  %8 = getelementptr inbounds nuw i8, ptr %3, i64 48
  store ptr %7, ptr %8, align 8, !tbaa !42
  store ptr %7, ptr %3, align 8, !tbaa !43
  %9 = getelementptr inbounds nuw i8, ptr %3, i64 8
  store i64 4096, ptr %9, align 8, !tbaa !44
  ret void
}